target datalayout = "e-m:e-p270:32:32-p271:32:32-p272:64:64-i64:64-i128:128-f80:128-n8:16:32:64-S128"
target triple = "x86_64-pc-linux-gnu"

@PyExc_OSError = external global ptr, align 8
@set_inheritable.ioctl_works = internal global i32 -1, align 4

; Function Attrs: inlinehint nounwind uwtable
define internal void @_Py_atomic_store_int_relaxed(ptr noundef %0, i32 noundef %1) #7 {
  %3 = alloca ptr, align 8
  %4 = alloca i32, align 4
  %5 = alloca i32, align 4
  store ptr %0, ptr %3, align 8, !tbaa !177
  store i32 %1, ptr %4, align 4, !tbaa !4
  %6 = load ptr, ptr %3, align 8, !tbaa !177
  %7 = load i32, ptr %4, align 4, !tbaa !4
  store i32 %7, ptr %5, align 4, !tbaa !4
  %8 = load i32, ptr %5, align 4
  store atomic i32 %8, ptr %6 monotonic, align 4
  ret void
}

; Function Attrs: nounwind uwtable
define internal i32 @get_inheritable(i32 noundef %0, i32 noundef %1) #0 {
  %3 = alloca i32, align 4
  %4 = alloca i32, align 4
  %5 = alloca i32, align 4
  %6 = alloca i32, align 4
  %7 = alloca i32, align 4
  store i32 %0, ptr %4, align 4, !tbaa !4
  store i32 %1, ptr %5, align 4, !tbaa !4
  call void @llvm.lifetime.start.p0(i64 4, ptr %6) #10
  %8 = load i32, ptr %4, align 4, !tbaa !4
  %9 = call i32 (i32, i32, ...) @fcntl64(i32 noundef %8, i32 noundef 1, i32 noundef 0)
  store i32 %9, ptr %6, align 4, !tbaa !4
  %10 = load i32, ptr %6, align 4, !tbaa !4
  %11 = icmp eq i32 %10, -1
  br i1 %11, label %12, label %19

12:                                               ; preds = %2
  %13 = load i32, ptr %5, align 4, !tbaa !4
  %14 = icmp ne i32 %13, 0
  br i1 %14, label %15, label %18

15:                                               ; preds = %12
  %16 = load ptr, ptr @PyExc_OSError, align 8, !tbaa !178
  %17 = call ptr @PyErr_SetFromErrno(ptr noundef %16)
  br label %18

18:                                               ; preds = %15, %12
  store i32 -1, ptr %3, align 4
  store i32 1, ptr %7, align 4
  br label %25

19:                                               ; preds = %2
  %20 = load i32, ptr %6, align 4, !tbaa !4
  %21 = and i32 %20, 1
  %22 = icmp ne i32 %21, 0
  %23 = xor i1 %22, true
  %24 = zext i1 %23 to i32
  store i32 %24, ptr %3, align 4
  store i32 1, ptr %7, align 4
  br label %25

25:                                               ; preds = %19, %18
  call void @llvm.lifetime.end.p0(i64 4, ptr %6) #10
  %26 = load i32, ptr %3, align 4
  ret i32 %26
}

; Function Attrs: inlinehint nounwind uwtable
define internal i32 @_Py_atomic_load_int_relaxed(ptr noundef %0) #7 {
  %2 = alloca ptr, align 8
  %3 = alloca i32, align 4
  store ptr %0, ptr %2, align 8, !tbaa !177
  %4 = load ptr, ptr %2, align 8, !tbaa !177
  %5 = load atomic i32, ptr %4 monotonic, align 4
  store i32 %5, ptr %3, align 4
  %6 = load i32, ptr %3, align 4, !tbaa !4
  ret i32 %6
}

; Function Attrs: nounwind uwtable
define internal i32 @set_inheritable(i32 noundef %0, i32 noundef %1, i32 noundef %2, ptr noundef %3) #0 {
  %5 = alloca i32, align 4
  %6 = alloca i32, align 4
  %7 = alloca i32, align 4
  %8 = alloca i32, align 4
  %9 = alloca ptr, align 8
  %10 = alloca i32, align 4
  %11 = alloca i32, align 4
  %12 = alloca i32, align 4
  %13 = alloca i32, align 4
  %14 = alloca i32, align 4
  %15 = alloca i32, align 4
  %16 = alloca i32, align 4
  store i32 %0, ptr %6, align 4, !tbaa !4
  store i32 %1, ptr %7, align 4, !tbaa !4
  store i32 %2, ptr %8, align 4, !tbaa !4
  store ptr %3, ptr %9, align 8, !tbaa !177
  call void @llvm.lifetime.start.p0(i64 4, ptr %10) #10
  call void @llvm.lifetime.start.p0(i64 4, ptr %11) #10
  call void @llvm.lifetime.start.p0(i64 4, ptr %12) #10
  call void @llvm.lifetime.start.p0(i64 4, ptr %13) #10
  call void @llvm.lifetime.start.p0(i64 4, ptr %14) #10
  %17 = load ptr, ptr %9, align 8, !tbaa !177
  %18 = icmp ne ptr %17, null
  br i1 %18, label %19, label %48

19:                                               ; preds = %4
  %20 = load i32, ptr %7, align 4, !tbaa !4
  %21 = icmp ne i32 %20, 0
  br i1 %21, label %48, label %22

22:                                               ; preds = %19
  %23 = load ptr, ptr %9, align 8, !tbaa !177
  %24 = call i32 @_Py_atomic_load_int_relaxed(ptr noundef %23)
  %25 = icmp eq i32 %24, -1
  br i1 %25, label %26, label %42

26:                                               ; preds = %22
  call void @llvm.lifetime.start.p0(i64 4, ptr %15) #10
  %27 = load i32, ptr %6, align 4, !tbaa !4
  %28 = load i32, ptr %8, align 4, !tbaa !4
  %29 = call i32 @get_inheritable(i32 noundef %27, i32 noundef %28)
  store i32 %29, ptr %15, align 4, !tbaa !4
  %30 = load i32, ptr %15, align 4, !tbaa !4
  %31 = icmp eq i32 %30, -1
  br i1 %31, label %32, label %33

32:                                               ; preds = %26
  store i32 -1, ptr %5, align 4
  store i32 1, ptr %16, align 4
  br label %39

33:                                               ; preds = %26
  %34 = load ptr, ptr %9, align 8, !tbaa !177
  %35 = load i32, ptr %15, align 4, !tbaa !4
  %36 = icmp ne i32 %35, 0
  %37 = xor i1 %36, true
  %38 = zext i1 %37 to i32
  call void @_Py_atomic_store_int_relaxed(ptr noundef %34, i32 noundef %38)
  store i32 0, ptr %16, align 4
  br label %39

39:                                               ; preds = %33, %32
  call void @llvm.lifetime.end.p0(i64 4, ptr %15) #10
  %40 = load i32, ptr %16, align 4
  switch i32 %40, label %134 [
    i32 0, label %41
  ]

41:                                               ; preds = %39
  br label %42

42:                                               ; preds = %41, %22
  %43 = load ptr, ptr %9, align 8, !tbaa !177
  %44 = call i32 @_Py_atomic_load_int_relaxed(ptr noundef %43)
  %45 = icmp ne i32 %44, 0
  br i1 %45, label %46, label %47

46:                                               ; preds = %42
  store i32 0, ptr %5, align 4
  store i32 1, ptr %16, align 4
  br label %134

47:                                               ; preds = %42
  br label %48

48:                                               ; preds = %47, %19, %4
  %49 = load i32, ptr %8, align 4, !tbaa !4
  %50 = icmp ne i32 %49, 0
  br i1 %50, label %51, label %94

51:                                               ; preds = %48
  %52 = call i32 @_Py_atomic_load_int_relaxed(ptr noundef @set_inheritable.ioctl_works)
  %53 = icmp ne i32 %52, 0
  br i1 %53, label %54, label %94

54:                                               ; preds = %51
  %55 = load i32, ptr %7, align 4, !tbaa !4
  %56 = icmp ne i32 %55, 0
  br i1 %56, label %57, label %58

57:                                               ; preds = %54
  store i32 21584, ptr %10, align 4, !tbaa !4
  br label %59

58:                                               ; preds = %54
  store i32 21585, ptr %10, align 4, !tbaa !4
  br label %59

59:                                               ; preds = %58, %57
  %60 = load i32, ptr %6, align 4, !tbaa !4
  %61 = load i32, ptr %10, align 4, !tbaa !4
  %62 = sext i32 %61 to i64
  %63 = call i32 (i32, i64, ...) @ioctl(i32 noundef %60, i64 noundef %62, ptr noundef null) #10
  store i32 %63, ptr %11, align 4, !tbaa !4
  %64 = load i32, ptr %11, align 4, !tbaa !4
  %65 = icmp ne i32 %64, 0
  br i1 %65, label %71, label %66

66:                                               ; preds = %59
  %67 = call i32 @_Py_atomic_load_int_relaxed(ptr noundef @set_inheritable.ioctl_works)
  %68 = icmp eq i32 %67, -1
  br i1 %68, label %69, label %70

69:                                               ; preds = %66
  call void @_Py_atomic_store_int_relaxed(ptr noundef @set_inheritable.ioctl_works, i32 noundef 1)
  br label %70

70:                                               ; preds = %69, %66
  store i32 0, ptr %5, align 4
  store i32 1, ptr %16, align 4
  br label %134

71:                                               ; preds = %59
  %72 = call ptr @__errno_location() #12
  %73 = load i32, ptr %72, align 4, !tbaa !4
  %74 = icmp eq i32 %73, 9
  br i1 %74, label %75, label %76

75:                                               ; preds = %71
  br label %93

76:                                               ; preds = %71
  %77 = call ptr @__errno_location() #12
  %78 = load i32, ptr %77, align 4, !tbaa !4
  %79 = icmp ne i32 %78, 25
  br i1 %79, label %80, label %91

80:                                               ; preds = %76
  %81 = call ptr @__errno_location() #12
  %82 = load i32, ptr %81, align 4, !tbaa !4
  %83 = icmp ne i32 %82, 13
  br i1 %83, label %84, label %91

84:                                               ; preds = %80
  %85 = load i32, ptr %8, align 4, !tbaa !4
  %86 = icmp ne i32 %85, 0
  br i1 %86, label %87, label %90

87:                                               ; preds = %84
  %88 = load ptr, ptr @PyExc_OSError, align 8, !tbaa !178
  %89 = call ptr @PyErr_SetFromErrno(ptr noundef %88)
  br label %90

90:                                               ; preds = %87, %84
  store i32 -1, ptr %5, align 4
  store i32 1, ptr %16, align 4
  br label %134

91:                                               ; preds = %80, %76
  call void @_Py_atomic_store_int_relaxed(ptr noundef @set_inheritable.ioctl_works, i32 noundef 0)
  br label %92

92:                                               ; preds = %91
  br label %93

93:                                               ; preds = %92, %75
  br label %94

94:                                               ; preds = %93, %51, %48
  %95 = load i32, ptr %6, align 4, !tbaa !4
  %96 = call i32 (i32, i32, ...) @fcntl64(i32 noundef %95, i32 noundef 1)
  store i32 %96, ptr %12, align 4, !tbaa !4
  %97 = load i32, ptr %12, align 4, !tbaa !4
  %98 = icmp slt i32 %97, 0
  br i1 %98, label %99, label %106

99:                                               ; preds = %94
  %100 = load i32, ptr %8, align 4, !tbaa !4
  %101 = icmp ne i32 %100, 0
  br i1 %101, label %102, label %105

102:                                              ; preds = %99
  %103 = load ptr, ptr @PyExc_OSError, align 8, !tbaa !178
  %104 = call ptr @PyErr_SetFromErrno(ptr noundef %103)
  br label %105

105:                                              ; preds = %102, %99
  store i32 -1, ptr %5, align 4
  store i32 1, ptr %16, align 4
  br label %134

106:                                              ; preds = %94
  %107 = load i32, ptr %7, align 4, !tbaa !4
  %108 = icmp ne i32 %107, 0
  br i1 %108, label %109, label %112

109:                                              ; preds = %106
  %110 = load i32, ptr %12, align 4, !tbaa !4
  %111 = and i32 %110, -2
  store i32 %111, ptr %13, align 4, !tbaa !4
  br label %115

112:                                              ; preds = %106
  %113 = load i32, ptr %12, align 4, !tbaa !4
  %114 = or i32 %113, 1
  store i32 %114, ptr %13, align 4, !tbaa !4
  br label %115

115:                                              ; preds = %112, %109
  %116 = load i32, ptr %13, align 4, !tbaa !4
  %117 = load i32, ptr %12, align 4, !tbaa !4
  %118 = icmp eq i32 %116, %117
  br i1 %118, label %119, label %120

119:                                              ; preds = %115
  store i32 0, ptr %5, align 4
  store i32 1, ptr %16, align 4
  br label %134

120:                                              ; preds = %115
  %121 = load i32, ptr %6, align 4, !tbaa !4
  %122 = load i32, ptr %13, align 4, !tbaa !4
  %123 = call i32 (i32, i32, ...) @fcntl64(i32 noundef %121, i32 noundef 2, i32 noundef %122)
  store i32 %123, ptr %14, align 4, !tbaa !4
  %124 = load i32, ptr %14, align 4, !tbaa !4
  %125 = icmp slt i32 %124, 0
  br i1 %125, label %126, label %133

126:                                              ; preds = %120
  %127 = load i32, ptr %8, align 4, !tbaa !4
  %128 = icmp ne i32 %127, 0
  br i1 %128, label %129, label %132

129:                                              ; preds = %126
  %130 = load ptr, ptr @PyExc_OSError, align 8, !tbaa !178
  %131 = call ptr @PyErr_SetFromErrno(ptr noundef %130)
  br label %132

132:                                              ; preds = %129, %126
  store i32 -1, ptr %5, align 4
  store i32 1, ptr %16, align 4
  br label %134

133:                                              ; preds = %120
  store i32 0, ptr %5, align 4
  store i32 1, ptr %16, align 4
  br label %134

134:                                              ; preds = %133, %132, %119, %105, %90, %70, %46, %39
  call void @llvm.lifetime.end.p0(i64 4, ptr %14) #10
  call void @llvm.lifetime.end.p0(i64 4, ptr %13) #10
  call void @llvm.lifetime.end.p0(i64 4, ptr %12) #10
  call void @llvm.lifetime.end.p0(i64 4, ptr %11) #10
  call void @llvm.lifetime.end.p0(i64 4, ptr %10) #10
  %135 = load i32, ptr %5, align 4
  ret i32 %135
}

; Function Attrs: nounwind uwtable
define dso_local i32 @_Py_set_inheritable_async_safe(i32 noundef %0, i32 noundef %1, ptr noundef %2) #0 {
  %4 = alloca i32, align 4
  %5 = alloca i32, align 4
  %6 = alloca ptr, align 8
  store i32 %0, ptr %4, align 4, !tbaa !4
  store i32 %1, ptr %5, align 4, !tbaa !4
  store ptr %2, ptr %6, align 8, !tbaa !177
  %7 = load i32, ptr %4, align 4, !tbaa !4
  %8 = load i32, ptr %5, align 4, !tbaa !4
  %9 = load ptr, ptr %6, align 8, !tbaa !177
  %10 = call i32 @set_inheritable(i32 noundef %7, i32 noundef %8, i32 noundef 0, ptr noundef %9)
  ret i32 %10
}