; Function Attrs: nounwind uwtable
define dso_local range(i32 -1, 1) i32 @_Py_set_inheritable_async_safe(i32 noundef %0, i32 noundef %1, ptr noundef %2) local_unnamed_addr #0 {
  %4 = icmp eq ptr %2, null
  %5 = icmp ne i32 %1, 0
  %or.cond.i = or i1 %5, %4
  br i1 %or.cond.i, label %15, label %6

6:                                                ; preds = %3
  %7 = load atomic i32, ptr %2 monotonic, align 4
  %8 = icmp eq i32 %7, -1
  br i1 %8, label %9, label %13

9:                                                ; preds = %6
  %10 = tail call i32 (i32, i32, ...) @fcntl64(i32 noundef %0, i32 noundef 1, i32 noundef 0) #17
  %11 = icmp eq i32 %10, -1
  br i1 %11, label %set_inheritable.exit, label %get_inheritable.exit.i

get_inheritable.exit.i:                           ; preds = %9
  %12 = and i32 %10, 1
  store atomic i32 %12, ptr %2 monotonic, align 4
  br label %13

13:                                               ; preds = %get_inheritable.exit.i, %6
  %14 = load atomic i32, ptr %2 monotonic, align 4
  %.not37.i = icmp eq i32 %14, 0
  br i1 %.not37.i, label %15, label %set_inheritable.exit

15:                                               ; preds = %13, %3
  %16 = tail call i32 (i32, i32, ...) @fcntl64(i32 noundef %0, i32 noundef 1) #17
  %17 = icmp slt i32 %16, 0
  br i1 %17, label %set_inheritable.exit, label %18

18:                                               ; preds = %15
  %19 = and i32 %16, 2147483646
  %20 = or i32 %16, 1
  %.031.i = select i1 %5, i32 %19, i32 %20
  %21 = icmp eq i32 %.031.i, %16
  br i1 %21, label %set_inheritable.exit, label %22

22:                                               ; preds = %18
  %23 = tail call i32 (i32, i32, ...) @fcntl64(i32 noundef %0, i32 noundef 2, i32 noundef %.031.i) #17
  %.lobit = ashr i32 %23, 31
  br label %set_inheritable.exit

set_inheritable.exit:                             ; preds = %9, %13, %15, %18, %22
  %.1.i = phi i32 [ 0, %13 ], [ 0, %18 ], [ %.lobit, %22 ], [ -1, %15 ], [ -1, %9 ]
  ret i32 %.1.i
}